target datalayout = "e-m:e-p270:32:32-p271:32:32-p272:64:64-i64:64-i128:128-f80:128-n8:16:32:64-S128"
target triple = "x86_64-pc-linux-gnu"

%"class.sentencepiece::util::Status" = type { %"class.std::unique_ptr" }
%"class.std::unique_ptr" = type { %"struct.std::__uniq_ptr_data" }
%"struct.std::__uniq_ptr_data" = type { %"class.std::__uniq_ptr_impl" }
%"class.std::__uniq_ptr_impl" = type { %"class.std::tuple" }
%"class.std::tuple" = type { %"struct.std::_Tuple_impl" }
%"struct.std::_Tuple_impl" = type { %"struct.std::_Head_base.1" }
%"struct.std::_Head_base.1" = type { ptr }
%"class.google::protobuf::MessageLite" = type { ptr, %"class.google::protobuf::internal::InternalMetadata" }
%"class.google::protobuf::internal::InternalMetadata" = type { ptr }
%"class.google::protobuf::internal::ExtensionSet" = type { ptr, i16, i16, %"union.google::protobuf::internal::ExtensionSet::AllocatedData" }
%"union.google::protobuf::internal::ExtensionSet::AllocatedData" = type { ptr }
%"class.google::protobuf::internal::CachedSize" = type { %"struct.std::atomic" }
%"struct.std::atomic" = type { %"struct.std::__atomic_base" }
%"struct.std::__atomic_base" = type { i32 }
%"struct.google::protobuf::internal::ArenaStringPtr" = type { %"class.google::protobuf::internal::TaggedPtr" }
%"class.google::protobuf::internal::TaggedPtr" = type { ptr }
%"class.sentencepiece::NormalizerSpec" = type <{ %"class.google::protobuf::MessageLite", %"class.google::protobuf::internal::ExtensionSet", %"class.google::protobuf::internal::HasBits.11", %"class.google::protobuf::internal::CachedSize", %"struct.google::protobuf::internal::ArenaStringPtr", %"struct.google::protobuf::internal::ArenaStringPtr", %"struct.google::protobuf::internal::ArenaStringPtr", i8, i8, i8, [5 x i8] }>
%"class.google::protobuf::internal::HasBits.11" = type { [1 x i32] }

; Function Attrs: mustprogress uwtable
define void @_ZN13sentencepiece20SentencePieceTrainer5TrainERKNS_11TrainerSpecERKNS_14NormalizerSpecEPNS_16SentenceIteratorEPNSt7__cxx1112basic_stringIcSt11char_traitsIcESaIcEEE(ptr dead_on_unwind noalias writable sret(%"class.sentencepiece::util::Status") align 8 %0, ptr noundef nonnull align 8 dereferenceable(336) %1, ptr noundef nonnull align 8 dereferenceable(80) %2, ptr noundef %3, ptr noundef %4) #4 align 2 personality ptr @__gxx_personality_v0 {
  %6 = alloca ptr, align 8
  %7 = alloca ptr, align 8
  %8 = alloca ptr, align 8
  %9 = alloca ptr, align 8
  %10 = alloca ptr, align 8
  %11 = alloca %"class.sentencepiece::NormalizerSpec", align 8
  %12 = alloca ptr, align 8
  %13 = alloca i32, align 4
  store ptr %0, ptr %6, align 8
  store ptr %1, ptr %7, align 8, !tbaa !3
  store ptr %2, ptr %8, align 8, !tbaa !94
  store ptr %3, ptr %9, align 8, !tbaa !96
  store ptr %4, ptr %10, align 8, !tbaa !17
  call void @llvm.lifetime.start.p0(i64 80, ptr %11) #3
  call void @_ZN13sentencepiece14NormalizerSpecC2Ev(ptr noundef nonnull align 8 dereferenceable(80) %11)
  %14 = load ptr, ptr %7, align 8, !tbaa !3
  %15 = load ptr, ptr %8, align 8, !tbaa !94
  %16 = load ptr, ptr %9, align 8, !tbaa !96
  %17 = load ptr, ptr %10, align 8, !tbaa !17
  invoke void @_ZN13sentencepiece20SentencePieceTrainer5TrainERKNS_11TrainerSpecERKNS_14NormalizerSpecES6_PNS_16SentenceIteratorEPNSt7__cxx1112basic_stringIcSt11char_traitsIcESaIcEEE(ptr dead_on_unwind writable sret(%"class.sentencepiece::util::Status") align 8 %0, ptr noundef nonnull align 8 dereferenceable(336) %14, ptr noundef nonnull align 8 dereferenceable(80) %15, ptr noundef nonnull align 8 dereferenceable(80) %11, ptr noundef %16, ptr noundef %17)
          to label %18 unwind label %19

18:                                               ; preds = %5
  call void @_ZN13sentencepiece14NormalizerSpecD1Ev(ptr noundef nonnull align 8 dereferenceable(80) %11) #3
  call void @llvm.lifetime.end.p0(i64 80, ptr %11) #3
  ret void

19:                                               ; preds = %5
  %20 = landingpad { ptr, i32 }
          cleanup
  %21 = extractvalue { ptr, i32 } %20, 0
  store ptr %21, ptr %12, align 8
  %22 = extractvalue { ptr, i32 } %20, 1
  store i32 %22, ptr %13, align 4
  call void @_ZN13sentencepiece14NormalizerSpecD1Ev(ptr noundef nonnull align 8 dereferenceable(80) %11) #3
  call void @llvm.lifetime.end.p0(i64 80, ptr %11) #3
  br label %23

23:                                               ; preds = %19
  %24 = load ptr, ptr %12, align 8
  %25 = load i32, ptr %13, align 4
  %26 = insertvalue { ptr, i32 } poison, ptr %24, 0
  %27 = insertvalue { ptr, i32 } %26, i32 %25, 1
  resume { ptr, i32 } %27
}

; Function Attrs: inlinehint mustprogress uwtable
define linkonce_odr void @_ZN13sentencepiece14NormalizerSpecC2Ev(ptr noundef nonnull align 8 dereferenceable(80) %0) unnamed_addr #9 comdat align 2 {
  %2 = alloca ptr, align 8
  store ptr %0, ptr %2, align 8, !tbaa !94
  %3 = load ptr, ptr %2, align 8
  call void @_ZN13sentencepiece14NormalizerSpecC2EPN6google8protobuf5ArenaE(ptr noundef nonnull align 8 dereferenceable(80) %3, ptr noundef null)
  ret void
}

; Function Attrs: mustprogress uwtable
define void @_ZN13sentencepiece20SentencePieceTrainer5TrainERKNS_11TrainerSpecEPNS_16SentenceIteratorEPNSt7__cxx1112basic_stringIcSt11char_traitsIcESaIcEEE(ptr dead_on_unwind noalias writable sret(%"class.sentencepiece::util::Status") align 8 %0, ptr noundef nonnull align 8 dereferenceable(336) %1, ptr noundef %2, ptr noundef %3) #4 align 2 personality ptr @__gxx_personality_v0 {
  %5 = alloca ptr, align 8
  %6 = alloca ptr, align 8
  %7 = alloca ptr, align 8
  %8 = alloca ptr, align 8
  %9 = alloca %"class.sentencepiece::NormalizerSpec", align 8
  %10 = alloca ptr, align 8
  %11 = alloca i32, align 4
  store ptr %0, ptr %5, align 8
  store ptr %1, ptr %6, align 8, !tbaa !3
  store ptr %2, ptr %7, align 8, !tbaa !96
  store ptr %3, ptr %8, align 8, !tbaa !17
  call void @llvm.lifetime.start.p0(i64 80, ptr %9) #3
  call void @_ZN13sentencepiece14NormalizerSpecC2Ev(ptr noundef nonnull align 8 dereferenceable(80) %9)
  %12 = load ptr, ptr %6, align 8, !tbaa !3
  %13 = load ptr, ptr %7, align 8, !tbaa !96
  %14 = load ptr, ptr %8, align 8, !tbaa !17
  invoke void @_ZN13sentencepiece20SentencePieceTrainer5TrainERKNS_11TrainerSpecERKNS_14NormalizerSpecEPNS_16SentenceIteratorEPNSt7__cxx1112basic_stringIcSt11char_traitsIcESaIcEEE(ptr dead_on_unwind writable sret(%"class.sentencepiece::util::Status") align 8 %0, ptr noundef nonnull align 8 dereferenceable(336) %12, ptr noundef nonnull align 8 dereferenceable(80) %9, ptr noundef %13, ptr noundef %14)
          to label %15 unwind label %16

15:                                               ; preds = %4
  call void @_ZN13sentencepiece14NormalizerSpecD1Ev(ptr noundef nonnull align 8 dereferenceable(80) %9) #3
  call void @llvm.lifetime.end.p0(i64 80, ptr %9) #3
  ret void

16:                                               ; preds = %4
  %17 = landingpad { ptr, i32 }
          cleanup
  %18 = extractvalue { ptr, i32 } %17, 0
  store ptr %18, ptr %10, align 8
  %19 = extractvalue { ptr, i32 } %17, 1
  store i32 %19, ptr %11, align 4
  call void @_ZN13sentencepiece14NormalizerSpecD1Ev(ptr noundef nonnull align 8 dereferenceable(80) %9) #3
  call void @llvm.lifetime.end.p0(i64 80, ptr %9) #3
  br label %20

20:                                               ; preds = %16
  %21 = load ptr, ptr %10, align 8
  %22 = load i32, ptr %11, align 4
  %23 = insertvalue { ptr, i32 } poison, ptr %21, 0
  %24 = insertvalue { ptr, i32 } %23, i32 %22, 1
  resume { ptr, i32 } %24
}