; Function Attrs: mustprogress uwtable
define void @_ZN13sentencepiece20SentencePieceTrainer5TrainERKNS_11TrainerSpecEPNS_16SentenceIteratorEPNSt7__cxx1112basic_stringIcSt11char_traitsIcESaIcEEE(ptr dead_on_unwind noalias writable sret(%"class.sentencepiece::util::Status") align 8 %0, ptr noundef nonnull align 8 dereferenceable(336) %1, ptr noundef %2, ptr noundef %3) local_unnamed_addr #3 align 2 personality ptr @__gxx_personality_v0 {
  %5 = alloca %"class.sentencepiece::NormalizerSpec", align 8
  %6 = alloca %"class.sentencepiece::NormalizerSpec", align 8
  call void @llvm.lifetime.start.p0(i64 80, ptr nonnull %6) #26
  call void @_ZN13sentencepiece14NormalizerSpecC2EPN6google8protobuf5ArenaE(ptr noundef nonnull align 8 dereferenceable(80) %6, ptr noundef null)
  call void @llvm.lifetime.start.p0(i64 80, ptr nonnull %5) #26, !noalias !162
  invoke void @_ZN13sentencepiece14NormalizerSpecC2EPN6google8protobuf5ArenaE(ptr noundef nonnull align 8 dereferenceable(80) %5, ptr noundef null)
          to label %.noexc unwind label %10

.noexc:                                           ; preds = %4
  invoke void @_ZN13sentencepiece20SentencePieceTrainer5TrainERKNS_11TrainerSpecERKNS_14NormalizerSpecES6_PNS_16SentenceIteratorEPNSt7__cxx1112basic_stringIcSt11char_traitsIcESaIcEEE(ptr dead_on_unwind writable sret(%"class.sentencepiece::util::Status") align 8 %0, ptr noundef nonnull align 8 dereferenceable(336) %1, ptr noundef nonnull align 8 dereferenceable(80) %6, ptr noundef nonnull align 8 dereferenceable(80) %5, ptr noundef %2, ptr noundef %3)
          to label %9 unwind label %7

7:                                                ; preds = %.noexc
  %8 = landingpad { ptr, i32 }
          cleanup
  call void @_ZN13sentencepiece14NormalizerSpecD1Ev(ptr noundef nonnull align 8 dereferenceable(80) %5) #26
  call void @llvm.lifetime.end.p0(i64 80, ptr nonnull %5) #26, !noalias !162
  br label %.body

9:                                                ; preds = %.noexc
  call void @_ZN13sentencepiece14NormalizerSpecD1Ev(ptr noundef nonnull align 8 dereferenceable(80) %5) #26
  call void @llvm.lifetime.end.p0(i64 80, ptr nonnull %5) #26, !noalias !162
  call void @_ZN13sentencepiece14NormalizerSpecD1Ev(ptr noundef nonnull align 8 dereferenceable(80) %6) #26
  call void @llvm.lifetime.end.p0(i64 80, ptr nonnull %6) #26
  ret void

10:                                               ; preds = %4
  %11 = landingpad { ptr, i32 }
          cleanup
  br label %.body

.body:                                            ; preds = %7, %10
  %eh.lpad-body = phi { ptr, i32 } [ %11, %10 ], [ %8, %7 ]
  call void @_ZN13sentencepiece14NormalizerSpecD1Ev(ptr noundef nonnull align 8 dereferenceable(80) %6) #26
  call void @llvm.lifetime.end.p0(i64 80, ptr nonnull %6) #26
  resume { ptr, i32 } %eh.lpad-body
}